target datalayout = "e-m:e-p270:32:32-p271:32:32-p272:64:64-i64:64-i128:128-f80:128-n8:16:32:64-S128"
target triple = "x86_64-pc-linux-gnu"

%struct.Py_buffer = type { ptr, ptr, i64, i64, i32, i32, ptr, ptr, ptr, ptr, ptr }

; Function Attrs: inlinehint nounwind uwtable
define internal void @init_fortran_strides_from_shape(ptr noundef %0) #3 {
  %2 = alloca ptr, align 8
  %3 = alloca i64, align 8
  store ptr %0, ptr %2, align 8, !tbaa !9
  call void @llvm.lifetime.start.p0(i64 8, ptr %3) #9
  %4 = load ptr, ptr %2, align 8, !tbaa !9
  %5 = getelementptr inbounds nuw %struct.Py_buffer, ptr %4, i32 0, i32 3
  %6 = load i64, ptr %5, align 8, !tbaa !43
  %7 = load ptr, ptr %2, align 8, !tbaa !9
  %8 = getelementptr inbounds nuw %struct.Py_buffer, ptr %7, i32 0, i32 8
  %9 = load ptr, ptr %8, align 8, !tbaa !55
  %10 = getelementptr i64, ptr %9, i64 0
  store i64 %6, ptr %10, align 8, !tbaa !23
  store i64 1, ptr %3, align 8, !tbaa !23
  br label %11

11:                                               ; preds = %39, %1
  %12 = load i64, ptr %3, align 8, !tbaa !23
  %13 = load ptr, ptr %2, align 8, !tbaa !9
  %14 = getelementptr inbounds nuw %struct.Py_buffer, ptr %13, i32 0, i32 5
  %15 = load i32, ptr %14, align 4, !tbaa !25
  %16 = sext i32 %15 to i64
  %17 = icmp slt i64 %12, %16
  br i1 %17, label %18, label %42

18:                                               ; preds = %11
  %19 = load ptr, ptr %2, align 8, !tbaa !9
  %20 = getelementptr inbounds nuw %struct.Py_buffer, ptr %19, i32 0, i32 8
  %21 = load ptr, ptr %20, align 8, !tbaa !55
  %22 = load i64, ptr %3, align 8, !tbaa !23
  %23 = sub i64 %22, 1
  %24 = getelementptr i64, ptr %21, i64 %23
  %25 = load i64, ptr %24, align 8, !tbaa !23
  %26 = load ptr, ptr %2, align 8, !tbaa !9
  %27 = getelementptr inbounds nuw %struct.Py_buffer, ptr %26, i32 0, i32 7
  %28 = load ptr, ptr %27, align 8, !tbaa !44
  %29 = load i64, ptr %3, align 8, !tbaa !23
  %30 = sub i64 %29, 1
  %31 = getelementptr i64, ptr %28, i64 %30
  %32 = load i64, ptr %31, align 8, !tbaa !23
  %33 = mul i64 %25, %32
  %34 = load ptr, ptr %2, align 8, !tbaa !9
  %35 = getelementptr inbounds nuw %struct.Py_buffer, ptr %34, i32 0, i32 8
  %36 = load ptr, ptr %35, align 8, !tbaa !55
  %37 = load i64, ptr %3, align 8, !tbaa !23
  %38 = getelementptr i64, ptr %36, i64 %37
  store i64 %33, ptr %38, align 8, !tbaa !23
  br label %39

39:                                               ; preds = %18
  %40 = load i64, ptr %3, align 8, !tbaa !23
  %41 = add i64 %40, 1
  store i64 %41, ptr %3, align 8, !tbaa !23
  br label %11, !llvm.loop !161

42:                                               ; preds = %11
  call void @llvm.lifetime.end.p0(i64 8, ptr %3) #9
  ret void
}

; Function Attrs: inlinehint nounwind uwtable
define internal void @init_strides_from_shape(ptr noundef %0) #3 {
  %2 = alloca ptr, align 8
  %3 = alloca i64, align 8
  store ptr %0, ptr %2, align 8, !tbaa !9
  call void @llvm.lifetime.start.p0(i64 8, ptr %3) #9
  %4 = load ptr, ptr %2, align 8, !tbaa !9
  %5 = getelementptr inbounds nuw %struct.Py_buffer, ptr %4, i32 0, i32 3
  %6 = load i64, ptr %5, align 8, !tbaa !43
  %7 = load ptr, ptr %2, align 8, !tbaa !9
  %8 = getelementptr inbounds nuw %struct.Py_buffer, ptr %7, i32 0, i32 8
  %9 = load ptr, ptr %8, align 8, !tbaa !55
  %10 = load ptr, ptr %2, align 8, !tbaa !9
  %11 = getelementptr inbounds nuw %struct.Py_buffer, ptr %10, i32 0, i32 5
  %12 = load i32, ptr %11, align 4, !tbaa !25
  %13 = sub i32 %12, 1
  %14 = sext i32 %13 to i64
  %15 = getelementptr i64, ptr %9, i64 %14
  store i64 %6, ptr %15, align 8, !tbaa !23
  %16 = load ptr, ptr %2, align 8, !tbaa !9
  %17 = getelementptr inbounds nuw %struct.Py_buffer, ptr %16, i32 0, i32 5
  %18 = load i32, ptr %17, align 4, !tbaa !25
  %19 = sub i32 %18, 2
  %20 = sext i32 %19 to i64
  store i64 %20, ptr %3, align 8, !tbaa !23
  br label %21

21:                                               ; preds = %45, %1
  %22 = load i64, ptr %3, align 8, !tbaa !23
  %23 = icmp sge i64 %22, 0
  br i1 %23, label %24, label %48

24:                                               ; preds = %21
  %25 = load ptr, ptr %2, align 8, !tbaa !9
  %26 = getelementptr inbounds nuw %struct.Py_buffer, ptr %25, i32 0, i32 8
  %27 = load ptr, ptr %26, align 8, !tbaa !55
  %28 = load i64, ptr %3, align 8, !tbaa !23
  %29 = add i64 %28, 1
  %30 = getelementptr i64, ptr %27, i64 %29
  %31 = load i64, ptr %30, align 8, !tbaa !23
  %32 = load ptr, ptr %2, align 8, !tbaa !9
  %33 = getelementptr inbounds nuw %struct.Py_buffer, ptr %32, i32 0, i32 7
  %34 = load ptr, ptr %33, align 8, !tbaa !44
  %35 = load i64, ptr %3, align 8, !tbaa !23
  %36 = add i64 %35, 1
  %37 = getelementptr i64, ptr %34, i64 %36
  %38 = load i64, ptr %37, align 8, !tbaa !23
  %39 = mul i64 %31, %38
  %40 = load ptr, ptr %2, align 8, !tbaa !9
  %41 = getelementptr inbounds nuw %struct.Py_buffer, ptr %40, i32 0, i32 8
  %42 = load ptr, ptr %41, align 8, !tbaa !55
  %43 = load i64, ptr %3, align 8, !tbaa !23
  %44 = getelementptr i64, ptr %42, i64 %43
  store i64 %39, ptr %44, align 8, !tbaa !23
  br label %45

45:                                               ; preds = %24
  %46 = load i64, ptr %3, align 8, !tbaa !23
  %47 = add i64 %46, -1
  store i64 %47, ptr %3, align 8, !tbaa !23
  br label %21, !llvm.loop !160

48:                                               ; preds = %21
  call void @llvm.lifetime.end.p0(i64 8, ptr %3) #9
  ret void
}

; Function Attrs: nounwind uwtable
define internal i32 @buffer_to_contiguous(ptr noundef %0, ptr noundef %1, i8 noundef signext %2) #0 {
  %4 = alloca i32, align 4
  %5 = alloca ptr, align 8
  %6 = alloca ptr, align 8
  %7 = alloca i8, align 1
  %8 = alloca %struct.Py_buffer, align 8
  %9 = alloca ptr, align 8
  %10 = alloca i32, align 4
  %11 = alloca i32, align 4
  store ptr %0, ptr %5, align 8, !tbaa !22
  store ptr %1, ptr %6, align 8, !tbaa !9
  store i8 %2, ptr %7, align 1, !tbaa !29
  call void @llvm.lifetime.start.p0(i64 80, ptr %8) #9
  call void @llvm.lifetime.start.p0(i64 8, ptr %9) #9
  call void @llvm.lifetime.start.p0(i64 4, ptr %10) #9
  %12 = load ptr, ptr %6, align 8, !tbaa !9
  %13 = getelementptr inbounds nuw %struct.Py_buffer, ptr %12, i32 0, i32 5
  %14 = load i32, ptr %13, align 4, !tbaa !25
  %15 = sext i32 %14 to i64
  %16 = mul i64 %15, 8
  %17 = call ptr @PyMem_Malloc(i64 noundef %16)
  store ptr %17, ptr %9, align 8, !tbaa !32
  %18 = load ptr, ptr %9, align 8, !tbaa !32
  %19 = icmp eq ptr %18, null
  br i1 %19, label %20, label %22

20:                                               ; preds = %3
  %21 = call ptr @PyErr_NoMemory()
  store i32 -1, ptr %4, align 4
  store i32 1, ptr %11, align 4
  br label %43

22:                                               ; preds = %3
  %23 = load ptr, ptr %6, align 8, !tbaa !9
  call void @llvm.memcpy.p0.p0.i64(ptr align 8 %8, ptr align 8 %23, i64 80, i1 false), !tbaa.struct !31
  %24 = load ptr, ptr %5, align 8, !tbaa !22
  %25 = getelementptr inbounds nuw %struct.Py_buffer, ptr %8, i32 0, i32 0
  store ptr %24, ptr %25, align 8, !tbaa !30
  %26 = load ptr, ptr %9, align 8, !tbaa !32
  %27 = getelementptr inbounds nuw %struct.Py_buffer, ptr %8, i32 0, i32 8
  store ptr %26, ptr %27, align 8, !tbaa !55
  %28 = load i8, ptr %7, align 1, !tbaa !29
  %29 = sext i8 %28 to i32
  %30 = icmp eq i32 %29, 67
  br i1 %30, label %35, label %31

31:                                               ; preds = %22
  %32 = load i8, ptr %7, align 1, !tbaa !29
  %33 = sext i8 %32 to i32
  %34 = icmp eq i32 %33, 65
  br i1 %34, label %35, label %36

35:                                               ; preds = %31, %22
  call void @init_strides_from_shape(ptr noundef %8)
  br label %37

36:                                               ; preds = %31
  call void @init_fortran_strides_from_shape(ptr noundef %8)
  br label %37

37:                                               ; preds = %36, %35
  %38 = getelementptr inbounds nuw %struct.Py_buffer, ptr %8, i32 0, i32 9
  store ptr null, ptr %38, align 8, !tbaa !47
  %39 = load ptr, ptr %6, align 8, !tbaa !9
  %40 = call i32 @copy_buffer(ptr noundef %8, ptr noundef %39)
  store i32 %40, ptr %10, align 4, !tbaa !21
  %41 = load ptr, ptr %9, align 8, !tbaa !32
  call void @PyMem_Free(ptr noundef %41)
  %42 = load i32, ptr %10, align 4, !tbaa !21
  store i32 %42, ptr %4, align 4
  store i32 1, ptr %11, align 4
  br label %43

43:                                               ; preds = %37, %20
  call void @llvm.lifetime.end.p0(i64 4, ptr %10) #9
  call void @llvm.lifetime.end.p0(i64 8, ptr %9) #9
  call void @llvm.lifetime.end.p0(i64 80, ptr %8) #9
  %44 = load i32, ptr %4, align 4
  ret i32 %44
}