; Function Attrs: nounwind uwtable
define internal fastcc range(i32 -1, 1) i32 @buffer_to_contiguous(ptr noundef %0, ptr noundef readonly captures(none) %1, i8 noundef signext %2) unnamed_addr #0 {
  %4 = alloca %struct.Py_buffer, align 8
  call void @llvm.lifetime.start.p0(i64 80, ptr nonnull %4) #14
  %5 = getelementptr inbounds nuw i8, ptr %1, i64 36
  %6 = load i32, ptr %5, align 4, !tbaa !103
  %7 = sext i32 %6 to i64
  %8 = shl nsw i64 %7, 3
  %9 = tail call ptr @PyMem_Malloc(i64 noundef %8) #14
  %10 = icmp eq ptr %9, null
  br i1 %10, label %11, label %13

11:                                               ; preds = %3
  %12 = tail call ptr @PyErr_NoMemory() #14
  br label %51

13:                                               ; preds = %3
  call void @llvm.memcpy.p0.p0.i64(ptr noundef nonnull align 8 dereferenceable(80) %4, ptr noundef nonnull align 8 dereferenceable(80) %1, i64 80, i1 false), !tbaa.struct !129
  store ptr %0, ptr %4, align 8, !tbaa !117
  %14 = getelementptr inbounds nuw i8, ptr %4, i64 56
  store ptr %9, ptr %14, align 8, !tbaa !128
  %15 = and i8 %2, -3
  %or.cond = icmp eq i8 %15, 65
  %16 = getelementptr inbounds nuw i8, ptr %4, i64 24
  %17 = load i64, ptr %16, align 8, !tbaa !119
  br i1 %or.cond, label %18, label %36

18:                                               ; preds = %13
  %19 = getelementptr inbounds nuw i8, ptr %4, i64 36
  %20 = load i32, ptr %19, align 4, !tbaa !103
  %21 = add i32 %20, -1
  %22 = sext i32 %21 to i64
  %23 = getelementptr i64, ptr %9, i64 %22
  store i64 %17, ptr %23, align 8, !tbaa !124
  %24 = add i32 %20, -2
  %25 = icmp sgt i32 %24, -1
  br i1 %25, label %.lr.ph.i, label %init_strides_from_shape.exit

.lr.ph.i:                                         ; preds = %18
  %26 = zext nneg i32 %24 to i64
  %27 = getelementptr inbounds nuw i8, ptr %4, i64 48
  %28 = load ptr, ptr %27, align 8, !tbaa !127
  %29 = shl nuw nsw i64 %26, 3
  %30 = getelementptr i8, ptr %9, i64 %29
  %scevgep = getelementptr i8, ptr %30, i64 8
  %load_initial = load i64, ptr %scevgep, align 8
  %invariant.gep = getelementptr i8, ptr %28, i64 8
  br label %31

31:                                               ; preds = %31, %.lr.ph.i
  %store_forwarded = phi i64 [ %load_initial, %.lr.ph.i ], [ %33, %31 ]
  %.011.i = phi i64 [ %26, %.lr.ph.i ], [ %35, %31 ]
  %gep = getelementptr i64, ptr %invariant.gep, i64 %.011.i
  %32 = load i64, ptr %gep, align 8, !tbaa !124
  %33 = mul i64 %32, %store_forwarded
  %34 = getelementptr i64, ptr %9, i64 %.011.i
  store i64 %33, ptr %34, align 8, !tbaa !124
  %35 = add nsw i64 %.011.i, -1
  %.not.i = icmp eq i64 %.011.i, 0
  br i1 %.not.i, label %init_strides_from_shape.exit, label %31, !llvm.loop !142

36:                                               ; preds = %13
  store i64 %17, ptr %9, align 8, !tbaa !124
  %37 = getelementptr inbounds nuw i8, ptr %4, i64 36
  %38 = load i32, ptr %37, align 4, !tbaa !103
  %39 = sext i32 %38 to i64
  %40 = icmp sgt i32 %38, 1
  br i1 %40, label %.lr.ph.i13, label %init_strides_from_shape.exit

.lr.ph.i13:                                       ; preds = %36
  %41 = getelementptr inbounds nuw i8, ptr %4, i64 48
  %42 = load ptr, ptr %41, align 8, !tbaa !127
  %invariant.gep.i = getelementptr i8, ptr %42, i64 -8
  br label %43

43:                                               ; preds = %43, %.lr.ph.i13
  %44 = phi i64 [ %17, %.lr.ph.i13 ], [ %46, %43 ]
  %.010.i = phi i64 [ 1, %.lr.ph.i13 ], [ %48, %43 ]
  %gep.i = getelementptr i64, ptr %invariant.gep.i, i64 %.010.i
  %45 = load i64, ptr %gep.i, align 8, !tbaa !124
  %46 = mul i64 %45, %44
  %47 = getelementptr i64, ptr %9, i64 %.010.i
  store i64 %46, ptr %47, align 8, !tbaa !124
  %48 = add nuw nsw i64 %.010.i, 1
  %exitcond.not.i = icmp eq i64 %48, %39
  br i1 %exitcond.not.i, label %init_strides_from_shape.exit, label %43, !llvm.loop !143

init_strides_from_shape.exit:                     ; preds = %43, %31, %36, %18
  %49 = getelementptr inbounds nuw i8, ptr %4, i64 64
  store ptr null, ptr %49, align 8, !tbaa !123
  %50 = call fastcc i32 @copy_buffer(ptr noundef %4, ptr noundef nonnull %1)
  tail call void @PyMem_Free(ptr noundef nonnull %9) #14
  br label %51

51:                                               ; preds = %init_strides_from_shape.exit, %11
  %.0 = phi i32 [ -1, %11 ], [ %50, %init_strides_from_shape.exit ]
  call void @llvm.lifetime.end.p0(i64 80, ptr nonnull %4) #14
  ret i32 %.0
}